target datalayout = "e-m:e-p270:32:32-p271:32:32-p272:64:64-i64:64-i128:128-f80:128-n8:16:32:64-S128"
target triple = "x86_64-pc-linux-gnu"

%struct.dt_mipmap_buffer_t = type { i32, i32, i32, i32, float, ptr, i32, i32, ptr }
%struct.dt_mipmap_buffer_dsc = type <{ i32, i32, float, i64, i32, i32, [36 x i8] }>
%struct.dt_cache_entry_t = type { ptr, i64, i64, ptr, %union.pthread_rwlock_t, i32, i32 }
%union.pthread_rwlock_t = type { %struct.__pthread_rwlock_arch_t }
%struct.__pthread_rwlock_arch_t = type { i32, i32, i32, i32, i32, i32, i32, i32, i8, [7 x i8], i64, i32 }
%struct.dt_image_t = type { i32, i32, float, float, float, float, float, float, float, [64 x i8], [64 x i8], [128 x i8], [64 x i8], [64 x i8], [64 x i8], [64 x i8], i64, i32, %union.dt_image_correction_data_t, [64 x i8], [64 x i8], [64 x i8], [128 x i8], i32, [256 x i8], i32, i32, i32, i32, i32, i32, i32, i32, i32, i32, float, i32, i32, i32, i32, i32, i32, i64, i64, i64, i64, i32, [12 x i8], %struct.dt_iop_buffer_dsc_t, [9 x float], ptr, i32, i32, %struct.dt_image_raw_parameters_t, %struct.dt_image_geoloc_t, %struct._color_harmony_t, i16, [4 x i16], i32, i32, float, float, [4 x float], [4 x [3 x float]], [4 x float], ptr, ptr, i32, i32, [8 x i8] }
%union.dt_image_correction_data_t = type { %struct.anon.0 }
%struct.anon.0 = type { i32, float, [11 x float], [11 x float], [11 x float], [11 x float], [11 x float] }
%struct.dt_iop_buffer_dsc_t = type { i32, i32, i32, [6 x [6 x i8]], %struct.anon.3, [12 x i8], %struct.anon.4, [4 x float], i32, [12 x i8] }
%struct.anon.3 = type { i16, i16 }
%struct.anon.4 = type { i32, [12 x i8], [4 x float] }
%struct.dt_image_raw_parameters_t = type { i32 }
%struct.dt_image_geoloc_t = type { double, double, double }
%struct._color_harmony_t = type { i32, i32, i32 }

@_mipmap_cache_static_dead_image = internal global [3380 x float] zeroinitializer, align 64

; Function Attrs: inlinehint nounwind uwtable
define internal i32 @_is_static_image(ptr noundef %0) #4 {
  %2 = alloca ptr, align 8
  store ptr %0, ptr %2, align 8, !tbaa !49
  %3 = load ptr, ptr %2, align 8, !tbaa !49
  %4 = icmp eq ptr %3, @_mipmap_cache_static_dead_image
  %5 = zext i1 %4 to i32
  ret i32 %5
}

; Function Attrs: nounwind uwtable
define ptr @dt_mipmap_cache_alloc(ptr noundef %0, ptr noundef %1) #0 {
  %3 = alloca ptr, align 8
  %4 = alloca ptr, align 8
  %5 = alloca ptr, align 8
  %6 = alloca ptr, align 8
  %7 = alloca ptr, align 8
  %8 = alloca i32, align 4
  %9 = alloca i32, align 4
  %10 = alloca i64, align 8
  %11 = alloca i64, align 8
  %12 = alloca i32, align 4
  store ptr %0, ptr %4, align 8, !tbaa !6
  store ptr %1, ptr %5, align 8, !tbaa !26
  call void @llvm.lifetime.start.p0(i64 8, ptr %6) #12
  %13 = load ptr, ptr %4, align 8, !tbaa !6
  %14 = getelementptr inbounds nuw %struct.dt_mipmap_buffer_t, ptr %13, i32 0, i32 8
  %15 = load ptr, ptr %14, align 8, !tbaa !28
  store ptr %15, ptr %6, align 8, !tbaa !29
  call void @llvm.lifetime.start.p0(i64 8, ptr %7) #12
  %16 = load ptr, ptr %6, align 8, !tbaa !29
  %17 = getelementptr inbounds nuw %struct.dt_cache_entry_t, ptr %16, i32 0, i32 0
  %18 = load ptr, ptr %17, align 8, !tbaa !30
  store ptr %18, ptr %7, align 8, !tbaa !17
  call void @llvm.lifetime.start.p0(i64 4, ptr %8) #12
  %19 = load ptr, ptr %5, align 8, !tbaa !26
  %20 = getelementptr inbounds nuw %struct.dt_image_t, ptr %19, i32 0, i32 25
  %21 = load i32, ptr %20, align 4, !tbaa !33
  store i32 %21, ptr %8, align 4, !tbaa !43
  call void @llvm.lifetime.start.p0(i64 4, ptr %9) #12
  %22 = load ptr, ptr %5, align 8, !tbaa !26
  %23 = getelementptr inbounds nuw %struct.dt_image_t, ptr %22, i32 0, i32 26
  %24 = load i32, ptr %23, align 16, !tbaa !44
  store i32 %24, ptr %9, align 4, !tbaa !43
  call void @llvm.lifetime.start.p0(i64 8, ptr %10) #12
  %25 = load ptr, ptr %5, align 8, !tbaa !26
  %26 = getelementptr inbounds nuw %struct.dt_image_t, ptr %25, i32 0, i32 48
  %27 = call i64 @dt_iop_buffer_dsc_to_bpp(ptr noundef %26)
  store i64 %27, ptr %10, align 8, !tbaa !45
  call void @llvm.lifetime.start.p0(i64 8, ptr %11) #12
  %28 = load i32, ptr %8, align 4, !tbaa !43
  %29 = sext i32 %28 to i64
  %30 = load i32, ptr %9, align 4, !tbaa !43
  %31 = sext i32 %30 to i64
  %32 = mul i64 %29, %31
  %33 = load i64, ptr %10, align 8, !tbaa !45
  %34 = mul i64 %32, %33
  %35 = add i64 %34, 64
  store i64 %35, ptr %11, align 8, !tbaa !45
  %36 = load ptr, ptr %4, align 8, !tbaa !6
  %37 = getelementptr inbounds nuw %struct.dt_mipmap_buffer_t, ptr %36, i32 0, i32 5
  %38 = load ptr, ptr %37, align 8, !tbaa !11
  %39 = icmp ne ptr %38, null
  br i1 %39, label %40, label %50

40:                                               ; preds = %2
  %41 = load ptr, ptr %7, align 8, !tbaa !17
  %42 = call i32 @_is_static_image(ptr noundef %41)
  %43 = icmp ne i32 %42, 0
  br i1 %43, label %50, label %44

44:                                               ; preds = %40
  %45 = load ptr, ptr %6, align 8, !tbaa !29
  %46 = getelementptr inbounds nuw %struct.dt_cache_entry_t, ptr %45, i32 0, i32 1
  %47 = load i64, ptr %46, align 8, !tbaa !46
  %48 = load i64, ptr %11, align 8, !tbaa !45
  %49 = icmp ult i64 %47, %48
  br i1 %49, label %50, label %79

50:                                               ; preds = %44, %40, %2
  %51 = load ptr, ptr %7, align 8, !tbaa !17
  %52 = call i32 @_is_static_image(ptr noundef %51)
  %53 = icmp ne i32 %52, 0
  br i1 %53, label %58, label %54

54:                                               ; preds = %50
  %55 = load ptr, ptr %6, align 8, !tbaa !29
  %56 = getelementptr inbounds nuw %struct.dt_cache_entry_t, ptr %55, i32 0, i32 0
  %57 = load ptr, ptr %56, align 8, !tbaa !30
  call void @free(ptr noundef %57) #12
  br label %58

58:                                               ; preds = %54, %50
  %59 = load ptr, ptr %6, align 8, !tbaa !29
  %60 = getelementptr inbounds nuw %struct.dt_cache_entry_t, ptr %59, i32 0, i32 1
  store i64 0, ptr %60, align 8, !tbaa !46
  %61 = load i64, ptr %11, align 8, !tbaa !45
  %62 = call ptr @dt_alloc_aligned(i64 noundef %61)
  %63 = load ptr, ptr %6, align 8, !tbaa !29
  %64 = getelementptr inbounds nuw %struct.dt_cache_entry_t, ptr %63, i32 0, i32 0
  store ptr %62, ptr %64, align 8, !tbaa !30
  %65 = load ptr, ptr %6, align 8, !tbaa !29
  %66 = getelementptr inbounds nuw %struct.dt_cache_entry_t, ptr %65, i32 0, i32 0
  %67 = load ptr, ptr %66, align 8, !tbaa !30
  %68 = icmp ne ptr %67, null
  br i1 %68, label %72, label %69

69:                                               ; preds = %58
  %70 = load ptr, ptr %6, align 8, !tbaa !29
  %71 = getelementptr inbounds nuw %struct.dt_cache_entry_t, ptr %70, i32 0, i32 0
  store ptr @_mipmap_cache_static_dead_image, ptr %71, align 8, !tbaa !30
  store ptr null, ptr %3, align 8
  store i32 1, ptr %12, align 4
  br label %101

72:                                               ; preds = %58
  %73 = load i64, ptr %11, align 8, !tbaa !45
  %74 = load ptr, ptr %6, align 8, !tbaa !29
  %75 = getelementptr inbounds nuw %struct.dt_cache_entry_t, ptr %74, i32 0, i32 1
  store i64 %73, ptr %75, align 8, !tbaa !46
  %76 = load ptr, ptr %6, align 8, !tbaa !29
  %77 = getelementptr inbounds nuw %struct.dt_cache_entry_t, ptr %76, i32 0, i32 0
  %78 = load ptr, ptr %77, align 8, !tbaa !30
  store ptr %78, ptr %7, align 8, !tbaa !17
  br label %79

79:                                               ; preds = %72, %44
  %80 = load i64, ptr %11, align 8, !tbaa !45
  %81 = load ptr, ptr %7, align 8, !tbaa !17
  %82 = getelementptr inbounds nuw %struct.dt_mipmap_buffer_dsc, ptr %81, i32 0, i32 3
  store i64 %80, ptr %82, align 4, !tbaa !47
  %83 = load i32, ptr %8, align 4, !tbaa !43
  %84 = load ptr, ptr %7, align 8, !tbaa !17
  %85 = getelementptr inbounds nuw %struct.dt_mipmap_buffer_dsc, ptr %84, i32 0, i32 0
  store i32 %83, ptr %85, align 64, !tbaa !22
  %86 = load i32, ptr %9, align 4, !tbaa !43
  %87 = load ptr, ptr %7, align 8, !tbaa !17
  %88 = getelementptr inbounds nuw %struct.dt_mipmap_buffer_dsc, ptr %87, i32 0, i32 1
  store i32 %86, ptr %88, align 4, !tbaa !19
  %89 = load ptr, ptr %7, align 8, !tbaa !17
  %90 = getelementptr inbounds nuw %struct.dt_mipmap_buffer_dsc, ptr %89, i32 0, i32 2
  store float 1.000000e+00, ptr %90, align 8, !tbaa !23
  %91 = load ptr, ptr %7, align 8, !tbaa !17
  %92 = getelementptr inbounds nuw %struct.dt_mipmap_buffer_dsc, ptr %91, i32 0, i32 5
  store i32 -1, ptr %92, align 8, !tbaa !24
  %93 = load ptr, ptr %7, align 8, !tbaa !17
  %94 = getelementptr inbounds nuw %struct.dt_mipmap_buffer_dsc, ptr %93, i32 0, i32 4
  store i32 1, ptr %94, align 4, !tbaa !48
  %95 = load ptr, ptr %7, align 8, !tbaa !17
  %96 = getelementptr inbounds %struct.dt_mipmap_buffer_dsc, ptr %95, i64 1
  %97 = load ptr, ptr %4, align 8, !tbaa !6
  %98 = getelementptr inbounds nuw %struct.dt_mipmap_buffer_t, ptr %97, i32 0, i32 5
  store ptr %96, ptr %98, align 8, !tbaa !11
  %99 = load ptr, ptr %7, align 8, !tbaa !17
  %100 = getelementptr inbounds %struct.dt_mipmap_buffer_dsc, ptr %99, i64 1
  store ptr %100, ptr %3, align 8
  store i32 1, ptr %12, align 4
  br label %101

101:                                              ; preds = %79, %69
  call void @llvm.lifetime.end.p0(i64 8, ptr %11) #12
  call void @llvm.lifetime.end.p0(i64 8, ptr %10) #12
  call void @llvm.lifetime.end.p0(i64 4, ptr %9) #12
  call void @llvm.lifetime.end.p0(i64 4, ptr %8) #12
  call void @llvm.lifetime.end.p0(i64 8, ptr %7) #12
  call void @llvm.lifetime.end.p0(i64 8, ptr %6) #12
  %102 = load ptr, ptr %3, align 8
  ret ptr %102
}