; Function Attrs: nounwind uwtable
define ptr @dt_mipmap_cache_alloc(ptr noundef captures(none) %0, ptr noundef %1) local_unnamed_addr #3 {
  %3 = getelementptr inbounds nuw i8, ptr %0, i64 40
  %4 = load ptr, ptr %3, align 8, !tbaa !22
  %5 = load ptr, ptr %4, align 8, !tbaa !23
  %6 = getelementptr inbounds nuw i8, ptr %1, i64 1372
  %7 = load i32, ptr %6, align 4, !tbaa !26
  %8 = getelementptr inbounds nuw i8, ptr %1, i64 1376
  %9 = load i32, ptr %8, align 16, !tbaa !36
  %10 = getelementptr inbounds nuw i8, ptr %1, i64 1488
  %11 = tail call i64 @dt_iop_buffer_dsc_to_bpp(ptr noundef nonnull %10) #19
  %12 = sext i32 %7 to i64
  %13 = sext i32 %9 to i64
  %14 = mul nsw i64 %13, %12
  %15 = mul i64 %14, %11
  %16 = add i64 %15, 64
  %17 = getelementptr inbounds nuw i8, ptr %0, i64 24
  %18 = load ptr, ptr %17, align 8, !tbaa !6
  %.not = icmp eq ptr %18, null
  %.not38 = icmp eq ptr %5, @_mipmap_cache_static_dead_image
  %or.cond = select i1 %.not, i1 true, i1 %.not38
  br i1 %or.cond, label %23, label %19

19:                                               ; preds = %2
  %20 = getelementptr inbounds nuw i8, ptr %4, i64 8
  %21 = load i64, ptr %20, align 8, !tbaa !37
  %22 = icmp ult i64 %21, %16
  br i1 %22, label %.thread, label %30

23:                                               ; preds = %2
  br i1 %.not38, label %25, label %.thread

.thread:                                          ; preds = %19, %23
  %24 = load ptr, ptr %4, align 8, !tbaa !23
  tail call void @free(ptr noundef %24) #19
  br label %25

25:                                               ; preds = %.thread, %23
  %26 = getelementptr inbounds nuw i8, ptr %4, i64 8
  store i64 0, ptr %26, align 8, !tbaa !37
  %27 = tail call ptr @dt_alloc_aligned(i64 noundef %16) #19
  store ptr %27, ptr %4, align 8, !tbaa !23
  %.not37 = icmp eq ptr %27, null
  br i1 %.not37, label %28, label %29

28:                                               ; preds = %25
  store ptr @_mipmap_cache_static_dead_image, ptr %4, align 8, !tbaa !23
  br label %37

29:                                               ; preds = %25
  store i64 %16, ptr %26, align 8, !tbaa !37
  br label %30

30:                                               ; preds = %29, %19
  %.034 = phi ptr [ %27, %29 ], [ %5, %19 ]
  %31 = getelementptr inbounds nuw i8, ptr %.034, i64 12
  store i64 %16, ptr %31, align 4, !tbaa !38
  store i32 %7, ptr %.034, align 64, !tbaa !18
  %32 = getelementptr inbounds nuw i8, ptr %.034, i64 4
  store i32 %9, ptr %32, align 4, !tbaa !15
  %33 = getelementptr inbounds nuw i8, ptr %.034, i64 8
  store float 1.000000e+00, ptr %33, align 8, !tbaa !19
  %34 = getelementptr inbounds nuw i8, ptr %.034, i64 24
  store i32 -1, ptr %34, align 8, !tbaa !20
  %35 = getelementptr inbounds nuw i8, ptr %.034, i64 20
  store i32 1, ptr %35, align 4, !tbaa !39
  %36 = getelementptr inbounds nuw i8, ptr %.034, i64 64
  store ptr %36, ptr %17, align 8, !tbaa !6
  br label %37

37:                                               ; preds = %30, %28
  %.0 = phi ptr [ %36, %30 ], [ null, %28 ]
  ret ptr %.0
}